; Function Attrs: mustprogress uwtable
define hidden void @_ZN3euf6solver19user_propagate_initEPvRSt8functionIFvS1_PN15user_propagator8callbackEEERS2_IFvS1_S5_jEERS2_IFS1_S1_R11ast_managerRPNS3_11context_objEEE(ptr noundef nonnull align 8 dereferenceable(9136) %this, ptr noundef %ctx, ptr noundef nonnull align 8 dereferenceable(32) %push_eh, ptr noundef nonnull align 8 dereferenceable(32) %pop_eh, ptr noundef nonnull align 8 dereferenceable(32) %fresh_eh) local_unnamed_addr #3 align 2 {
entry:
  %call = tail call noalias noundef ptr @_ZN6memory8allocateEm(i64 noundef 496)
  tail call void @_ZN11user_solver6solverC1ERN3euf6solverE(ptr noundef nonnull align 8 dereferenceable(492) %call, ptr noundef nonnull align 8 dereferenceable(9136) %this)
  %m_user_propagator = getelementptr inbounds i8, ptr %this, i64 2328
  store ptr %call, ptr %m_user_propagator, align 8
  tail call void @_ZN11user_solver6solver3addEPvRSt8functionIFvS1_PN15user_propagator8callbackEEERS2_IFvS1_S5_jEERS2_IFS1_S1_R11ast_managerRPNS3_11context_objEEE(ptr noundef nonnull align 8 dereferenceable(492) %call, ptr noundef %ctx, ptr noundef nonnull align 8 dereferenceable(32) %push_eh, ptr noundef nonnull align 8 dereferenceable(32) %pop_eh, ptr noundef nonnull align 8 dereferenceable(32) %fresh_eh)
  %0 = load ptr, ptr %m_user_propagator, align 8
  tail call void @_ZN3euf6solver10add_solverEPNS_9th_solverE(ptr noundef nonnull align 8 dereferenceable(9136) %this, ptr noundef %0)
  ret void
}